CCS PCM C Compiler, Version 4.104, 5967               04-oct-13 19:31

               Filename: C:\Documents and Settings\Usuario Electronica\Escritorio\Nueva carpeta\corte2.lst

               ROM used: 886 words (11%)
                         Largest free fragment is 2048
               RAM used: 7 (2%) at main() level
                         7 (2%) worst case
               Stack:    1 locations

*
0000:  MOVLW  00
0001:  MOVWF  0A
0002:  GOTO   019
0003:  NOP
.................... #include <16f877a.h> 
.................... //////// Standard Header file for the PIC16F877A device //////////////// 
.................... #device PIC16F877A 
.................... #list 
....................  
.................... #use delay (clock=4000000) 
*
0004:  MOVLW  21
0005:  MOVWF  04
0006:  BCF    03.7
0007:  MOVF   00,W
0008:  BTFSC  03.2
0009:  GOTO   018
000A:  MOVLW  01
000B:  MOVWF  78
000C:  CLRF   77
000D:  DECFSZ 77,F
000E:  GOTO   00D
000F:  DECFSZ 78,F
0010:  GOTO   00C
0011:  MOVLW  4A
0012:  MOVWF  77
0013:  DECFSZ 77,F
0014:  GOTO   013
0015:  GOTO   016
0016:  DECFSZ 00,F
0017:  GOTO   00A
0018:  RETURN
.................... #fuses xt,nowdt,noprotect 
.................... void main () 
....................  
.................... { 
0019:  CLRF   04
001A:  BCF    03.7
001B:  MOVLW  1F
001C:  ANDWF  03,F
001D:  BSF    03.5
001E:  BSF    1F.0
001F:  BSF    1F.1
0020:  BSF    1F.2
0021:  BCF    1F.3
0022:  MOVLW  07
0023:  MOVWF  1C
.................... while(true) 
.................... { 
.................... if(input (PIN_B0)) 
*
0027:  BSF    03.5
0028:  BSF    06.0
0029:  BCF    03.5
002A:  BTFSS  06.0
002B:  GOTO   374
.................... { 
....................  
.................... output_low(PIN_C0)>=output_low(PIN_C1)>=output_low(PIN_C2)>=output_low(PIN_C3)>=output_low(PIN_C4)>=output_low(PIN_C5)>=output_high(PIN_C6); 
002C:  BCF    20.0
002D:  MOVF   20,W
002E:  BSF    03.5
002F:  MOVWF  07
0030:  BCF    03.5
0031:  BCF    07.0
0032:  MOVWF  21
0033:  BCF    20.1
0034:  MOVF   20,W
0035:  BSF    03.5
0036:  MOVWF  07
0037:  BCF    03.5
0038:  BCF    07.1
0039:  SUBWF  21,W
003A:  BTFSC  03.0
003B:  GOTO   03E
003C:  MOVLW  00
003D:  GOTO   03F
003E:  MOVLW  01
003F:  MOVWF  21
0040:  BCF    20.2
0041:  MOVF   20,W
0042:  BSF    03.5
0043:  MOVWF  07
0044:  BCF    03.5
0045:  BCF    07.2
0046:  SUBWF  21,W
0047:  BTFSC  03.0
0048:  GOTO   04B
0049:  MOVLW  00
004A:  GOTO   04C
004B:  MOVLW  01
004C:  MOVWF  21
004D:  BCF    20.3
004E:  MOVF   20,W
004F:  BSF    03.5
0050:  MOVWF  07
0051:  BCF    03.5
0052:  BCF    07.3
0053:  SUBWF  21,W
0054:  BTFSC  03.0
0055:  GOTO   058
0056:  MOVLW  00
0057:  GOTO   059
0058:  MOVLW  01
0059:  MOVWF  21
005A:  BCF    20.4
005B:  MOVF   20,W
005C:  BSF    03.5
005D:  MOVWF  07
005E:  BCF    03.5
005F:  BCF    07.4
0060:  SUBWF  21,W
0061:  BTFSC  03.0
0062:  GOTO   065
0063:  MOVLW  00
0064:  GOTO   066
0065:  MOVLW  01
0066:  MOVWF  21
0067:  BCF    20.5
0068:  MOVF   20,W
0069:  BSF    03.5
006A:  MOVWF  07
006B:  BCF    03.5
006C:  BCF    07.5
006D:  SUBWF  21,W
006E:  BTFSC  03.0
006F:  GOTO   072
0070:  MOVLW  00
0071:  GOTO   073
0072:  MOVLW  01
0073:  MOVWF  21
0074:  BCF    20.6
0075:  MOVF   20,W
0076:  BSF    03.5
0077:  MOVWF  07
0078:  BCF    03.5
0079:  BSF    07.6
007A:  SUBWF  21,W
007B:  BTFSS  03.0
007C:  MOVLW  00
.................... delay_ms(200); 
007D:  MOVLW  C8
007E:  MOVWF  21
007F:  CALL   004
.................... output_high(PIN_C0)>=output_low(PIN_C1)>=output_low(PIN_C2)>=output_high(PIN_C3)>=output_high(PIN_C4)>=output_high(PIN_C5)>=output_high(PIN_C6); 
0080:  BCF    20.0
0081:  MOVF   20,W
0082:  BSF    03.5
0083:  MOVWF  07
0084:  BCF    03.5
0085:  BSF    07.0
0086:  MOVWF  21
0087:  BCF    20.1
0088:  MOVF   20,W
0089:  BSF    03.5
008A:  MOVWF  07
008B:  BCF    03.5
008C:  BCF    07.1
008D:  SUBWF  21,W
008E:  BTFSC  03.0
008F:  GOTO   092
0090:  MOVLW  00
0091:  GOTO   093
0092:  MOVLW  01
0093:  MOVWF  21
0094:  BCF    20.2
0095:  MOVF   20,W
0096:  BSF    03.5
0097:  MOVWF  07
0098:  BCF    03.5
0099:  BCF    07.2
009A:  SUBWF  21,W
009B:  BTFSC  03.0
009C:  GOTO   09F
009D:  MOVLW  00
009E:  GOTO   0A0
009F:  MOVLW  01
00A0:  MOVWF  21
00A1:  BCF    20.3
00A2:  MOVF   20,W
00A3:  BSF    03.5
00A4:  MOVWF  07
00A5:  BCF    03.5
00A6:  BSF    07.3
00A7:  SUBWF  21,W
00A8:  BTFSC  03.0
00A9:  GOTO   0AC
00AA:  MOVLW  00
00AB:  GOTO   0AD
00AC:  MOVLW  01
00AD:  MOVWF  21
00AE:  BCF    20.4
00AF:  MOVF   20,W
00B0:  BSF    03.5
00B1:  MOVWF  07
00B2:  BCF    03.5
00B3:  BSF    07.4
00B4:  SUBWF  21,W
00B5:  BTFSC  03.0
00B6:  GOTO   0B9
00B7:  MOVLW  00
00B8:  GOTO   0BA
00B9:  MOVLW  01
00BA:  MOVWF  21
00BB:  BCF    20.5
00BC:  MOVF   20,W
00BD:  BSF    03.5
00BE:  MOVWF  07
00BF:  BCF    03.5
00C0:  BSF    07.5
00C1:  SUBWF  21,W
00C2:  BTFSC  03.0
00C3:  GOTO   0C6
00C4:  MOVLW  00
00C5:  GOTO   0C7
00C6:  MOVLW  01
00C7:  MOVWF  21
00C8:  BCF    20.6
00C9:  MOVF   20,W
00CA:  BSF    03.5
00CB:  MOVWF  07
00CC:  BCF    03.5
00CD:  BSF    07.6
00CE:  SUBWF  21,W
00CF:  BTFSS  03.0
00D0:  MOVLW  00
.................... delay_ms(200); 
00D1:  MOVLW  C8
00D2:  MOVWF  21
00D3:  CALL   004
.................... output_low(PIN_C0)>=output_low(PIN_C1)>=output_high(PIN_C2)>=output_low(PIN_C3)>=output_low(PIN_C4)>=output_high(PIN_C5)>=output_low(PIN_C6); 
00D4:  BCF    20.0
00D5:  MOVF   20,W
00D6:  BSF    03.5
00D7:  MOVWF  07
00D8:  BCF    03.5
00D9:  BCF    07.0
00DA:  MOVWF  21
00DB:  BCF    20.1
00DC:  MOVF   20,W
00DD:  BSF    03.5
00DE:  MOVWF  07
00DF:  BCF    03.5
00E0:  BCF    07.1
00E1:  SUBWF  21,W
00E2:  BTFSC  03.0
00E3:  GOTO   0E6
00E4:  MOVLW  00
00E5:  GOTO   0E7
00E6:  MOVLW  01
00E7:  MOVWF  21
00E8:  BCF    20.2
00E9:  MOVF   20,W
00EA:  BSF    03.5
00EB:  MOVWF  07
00EC:  BCF    03.5
00ED:  BSF    07.2
00EE:  SUBWF  21,W
00EF:  BTFSC  03.0
00F0:  GOTO   0F3
00F1:  MOVLW  00
00F2:  GOTO   0F4
00F3:  MOVLW  01
00F4:  MOVWF  21
00F5:  BCF    20.3
00F6:  MOVF   20,W
00F7:  BSF    03.5
00F8:  MOVWF  07
00F9:  BCF    03.5
00FA:  BCF    07.3
00FB:  SUBWF  21,W
00FC:  BTFSC  03.0
00FD:  GOTO   100
00FE:  MOVLW  00
00FF:  GOTO   101
0100:  MOVLW  01
0101:  MOVWF  21
0102:  BCF    20.4
0103:  MOVF   20,W
0104:  BSF    03.5
0105:  MOVWF  07
0106:  BCF    03.5
0107:  BCF    07.4
0108:  SUBWF  21,W
0109:  BTFSC  03.0
010A:  GOTO   10D
010B:  MOVLW  00
010C:  GOTO   10E
010D:  MOVLW  01
010E:  MOVWF  21
010F:  BCF    20.5
0110:  MOVF   20,W
0111:  BSF    03.5
0112:  MOVWF  07
0113:  BCF    03.5
0114:  BSF    07.5
0115:  SUBWF  21,W
0116:  BTFSC  03.0
0117:  GOTO   11A
0118:  MOVLW  00
0119:  GOTO   11B
011A:  MOVLW  01
011B:  MOVWF  21
011C:  BCF    20.6
011D:  MOVF   20,W
011E:  BSF    03.5
011F:  MOVWF  07
0120:  BCF    03.5
0121:  BCF    07.6
0122:  SUBWF  21,W
0123:  BTFSS  03.0
0124:  MOVLW  00
.................... delay_ms(200); 
0125:  MOVLW  C8
0126:  MOVWF  21
0127:  CALL   004
.................... output_low(PIN_C0)>=output_low(PIN_C1)>=output_low(PIN_C2)>=output_low(PIN_C3)>=output_high(PIN_C4)>=output_high(PIN_C5)>=output_low(PIN_C6); 
0128:  BCF    20.0
0129:  MOVF   20,W
012A:  BSF    03.5
012B:  MOVWF  07
012C:  BCF    03.5
012D:  BCF    07.0
012E:  MOVWF  21
012F:  BCF    20.1
0130:  MOVF   20,W
0131:  BSF    03.5
0132:  MOVWF  07
0133:  BCF    03.5
0134:  BCF    07.1
0135:  SUBWF  21,W
0136:  BTFSC  03.0
0137:  GOTO   13A
0138:  MOVLW  00
0139:  GOTO   13B
013A:  MOVLW  01
013B:  MOVWF  21
013C:  BCF    20.2
013D:  MOVF   20,W
013E:  BSF    03.5
013F:  MOVWF  07
0140:  BCF    03.5
0141:  BCF    07.2
0142:  SUBWF  21,W
0143:  BTFSC  03.0
0144:  GOTO   147
0145:  MOVLW  00
0146:  GOTO   148
0147:  MOVLW  01
0148:  MOVWF  21
0149:  BCF    20.3
014A:  MOVF   20,W
014B:  BSF    03.5
014C:  MOVWF  07
014D:  BCF    03.5
014E:  BCF    07.3
014F:  SUBWF  21,W
0150:  BTFSC  03.0
0151:  GOTO   154
0152:  MOVLW  00
0153:  GOTO   155
0154:  MOVLW  01
0155:  MOVWF  21
0156:  BCF    20.4
0157:  MOVF   20,W
0158:  BSF    03.5
0159:  MOVWF  07
015A:  BCF    03.5
015B:  BSF    07.4
015C:  SUBWF  21,W
015D:  BTFSC  03.0
015E:  GOTO   161
015F:  MOVLW  00
0160:  GOTO   162
0161:  MOVLW  01
0162:  MOVWF  21
0163:  BCF    20.5
0164:  MOVF   20,W
0165:  BSF    03.5
0166:  MOVWF  07
0167:  BCF    03.5
0168:  BSF    07.5
0169:  SUBWF  21,W
016A:  BTFSC  03.0
016B:  GOTO   16E
016C:  MOVLW  00
016D:  GOTO   16F
016E:  MOVLW  01
016F:  MOVWF  21
0170:  BCF    20.6
0171:  MOVF   20,W
0172:  BSF    03.5
0173:  MOVWF  07
0174:  BCF    03.5
0175:  BCF    07.6
0176:  SUBWF  21,W
0177:  BTFSS  03.0
0178:  MOVLW  00
.................... delay_ms(200); 
0179:  MOVLW  C8
017A:  MOVWF  21
017B:  CALL   004
.................... output_high(PIN_C0)>=output_low(PIN_C1)>=output_low(PIN_C2)>=output_high(PIN_C3)>=output_high(PIN_C4)>=output_low(PIN_C5)>=output_low(PIN_C6); 
017C:  BCF    20.0
017D:  MOVF   20,W
017E:  BSF    03.5
017F:  MOVWF  07
0180:  BCF    03.5
0181:  BSF    07.0
0182:  MOVWF  21
0183:  BCF    20.1
0184:  MOVF   20,W
0185:  BSF    03.5
0186:  MOVWF  07
0187:  BCF    03.5
0188:  BCF    07.1
0189:  SUBWF  21,W
018A:  BTFSC  03.0
018B:  GOTO   18E
018C:  MOVLW  00
018D:  GOTO   18F
018E:  MOVLW  01
018F:  MOVWF  21
0190:  BCF    20.2
0191:  MOVF   20,W
0192:  BSF    03.5
0193:  MOVWF  07
0194:  BCF    03.5
0195:  BCF    07.2
0196:  SUBWF  21,W
0197:  BTFSC  03.0
0198:  GOTO   19B
0199:  MOVLW  00
019A:  GOTO   19C
019B:  MOVLW  01
019C:  MOVWF  21
019D:  BCF    20.3
019E:  MOVF   20,W
019F:  BSF    03.5
01A0:  MOVWF  07
01A1:  BCF    03.5
01A2:  BSF    07.3
01A3:  SUBWF  21,W
01A4:  BTFSC  03.0
01A5:  GOTO   1A8
01A6:  MOVLW  00
01A7:  GOTO   1A9
01A8:  MOVLW  01
01A9:  MOVWF  21
01AA:  BCF    20.4
01AB:  MOVF   20,W
01AC:  BSF    03.5
01AD:  MOVWF  07
01AE:  BCF    03.5
01AF:  BSF    07.4
01B0:  SUBWF  21,W
01B1:  BTFSC  03.0
01B2:  GOTO   1B5
01B3:  MOVLW  00
01B4:  GOTO   1B6
01B5:  MOVLW  01
01B6:  MOVWF  21
01B7:  BCF    20.5
01B8:  MOVF   20,W
01B9:  BSF    03.5
01BA:  MOVWF  07
01BB:  BCF    03.5
01BC:  BCF    07.5
01BD:  SUBWF  21,W
01BE:  BTFSC  03.0
01BF:  GOTO   1C2
01C0:  MOVLW  00
01C1:  GOTO   1C3
01C2:  MOVLW  01
01C3:  MOVWF  21
01C4:  BCF    20.6
01C5:  MOVF   20,W
01C6:  BSF    03.5
01C7:  MOVWF  07
01C8:  BCF    03.5
01C9:  BCF    07.6
01CA:  SUBWF  21,W
01CB:  BTFSS  03.0
01CC:  MOVLW  00
.................... delay_ms(200); 
01CD:  MOVLW  C8
01CE:  MOVWF  21
01CF:  CALL   004
.................... output_low(PIN_C0)>=output_high(PIN_C1)>=output_low(PIN_C2)>=output_low(PIN_C3)>=output_high(PIN_C4)>=output_low(PIN_C5)>=output_low(PIN_C6); 
01D0:  BCF    20.0
01D1:  MOVF   20,W
01D2:  BSF    03.5
01D3:  MOVWF  07
01D4:  BCF    03.5
01D5:  BCF    07.0
01D6:  MOVWF  21
01D7:  BCF    20.1
01D8:  MOVF   20,W
01D9:  BSF    03.5
01DA:  MOVWF  07
01DB:  BCF    03.5
01DC:  BSF    07.1
01DD:  SUBWF  21,W
01DE:  BTFSC  03.0
01DF:  GOTO   1E2
01E0:  MOVLW  00
01E1:  GOTO   1E3
01E2:  MOVLW  01
01E3:  MOVWF  21
01E4:  BCF    20.2
01E5:  MOVF   20,W
01E6:  BSF    03.5
01E7:  MOVWF  07
01E8:  BCF    03.5
01E9:  BCF    07.2
01EA:  SUBWF  21,W
01EB:  BTFSC  03.0
01EC:  GOTO   1EF
01ED:  MOVLW  00
01EE:  GOTO   1F0
01EF:  MOVLW  01
01F0:  MOVWF  21
01F1:  BCF    20.3
01F2:  MOVF   20,W
01F3:  BSF    03.5
01F4:  MOVWF  07
01F5:  BCF    03.5
01F6:  BCF    07.3
01F7:  SUBWF  21,W
01F8:  BTFSC  03.0
01F9:  GOTO   1FC
01FA:  MOVLW  00
01FB:  GOTO   1FD
01FC:  MOVLW  01
01FD:  MOVWF  21
01FE:  BCF    20.4
01FF:  MOVF   20,W
0200:  BSF    03.5
0201:  MOVWF  07
0202:  BCF    03.5
0203:  BSF    07.4
0204:  SUBWF  21,W
0205:  BTFSC  03.0
0206:  GOTO   209
0207:  MOVLW  00
0208:  GOTO   20A
0209:  MOVLW  01
020A:  MOVWF  21
020B:  BCF    20.5
020C:  MOVF   20,W
020D:  BSF    03.5
020E:  MOVWF  07
020F:  BCF    03.5
0210:  BCF    07.5
0211:  SUBWF  21,W
0212:  BTFSC  03.0
0213:  GOTO   216
0214:  MOVLW  00
0215:  GOTO   217
0216:  MOVLW  01
0217:  MOVWF  21
0218:  BCF    20.6
0219:  MOVF   20,W
021A:  BSF    03.5
021B:  MOVWF  07
021C:  BCF    03.5
021D:  BCF    07.6
021E:  SUBWF  21,W
021F:  BTFSS  03.0
0220:  MOVLW  00
.................... delay_ms(200); 
0221:  MOVLW  C8
0222:  MOVWF  21
0223:  CALL   004
.................... output_low(PIN_C0)>=output_high(PIN_C1)>=output_low(PIN_C2)>=output_low(PIN_C3)>=output_low(PIN_C4)>=output_low(PIN_C5)>=output_low(PIN_C6); 
0224:  BCF    20.0
0225:  MOVF   20,W
0226:  BSF    03.5
0227:  MOVWF  07
0228:  BCF    03.5
0229:  BCF    07.0
022A:  MOVWF  21
022B:  BCF    20.1
022C:  MOVF   20,W
022D:  BSF    03.5
022E:  MOVWF  07
022F:  BCF    03.5
0230:  BSF    07.1
0231:  SUBWF  21,W
0232:  BTFSC  03.0
0233:  GOTO   236
0234:  MOVLW  00
0235:  GOTO   237
0236:  MOVLW  01
0237:  MOVWF  21
0238:  BCF    20.2
0239:  MOVF   20,W
023A:  BSF    03.5
023B:  MOVWF  07
023C:  BCF    03.5
023D:  BCF    07.2
023E:  SUBWF  21,W
023F:  BTFSC  03.0
0240:  GOTO   243
0241:  MOVLW  00
0242:  GOTO   244
0243:  MOVLW  01
0244:  MOVWF  21
0245:  BCF    20.3
0246:  MOVF   20,W
0247:  BSF    03.5
0248:  MOVWF  07
0249:  BCF    03.5
024A:  BCF    07.3
024B:  SUBWF  21,W
024C:  BTFSC  03.0
024D:  GOTO   250
024E:  MOVLW  00
024F:  GOTO   251
0250:  MOVLW  01
0251:  MOVWF  21
0252:  BCF    20.4
0253:  MOVF   20,W
0254:  BSF    03.5
0255:  MOVWF  07
0256:  BCF    03.5
0257:  BCF    07.4
0258:  SUBWF  21,W
0259:  BTFSC  03.0
025A:  GOTO   25D
025B:  MOVLW  00
025C:  GOTO   25E
025D:  MOVLW  01
025E:  MOVWF  21
025F:  BCF    20.5
0260:  MOVF   20,W
0261:  BSF    03.5
0262:  MOVWF  07
0263:  BCF    03.5
0264:  BCF    07.5
0265:  SUBWF  21,W
0266:  BTFSC  03.0
0267:  GOTO   26A
0268:  MOVLW  00
0269:  GOTO   26B
026A:  MOVLW  01
026B:  MOVWF  21
026C:  BCF    20.6
026D:  MOVF   20,W
026E:  BSF    03.5
026F:  MOVWF  07
0270:  BCF    03.5
0271:  BCF    07.6
0272:  SUBWF  21,W
0273:  BTFSS  03.0
0274:  MOVLW  00
.................... delay_ms(200); 
0275:  MOVLW  C8
0276:  MOVWF  21
0277:  CALL   004
.................... output_low(PIN_C0)>=output_low(PIN_C1)>=output_low(PIN_C2)>=output_high(PIN_C3)>=output_high(PIN_C4)>=output_high(PIN_C5)>=output_high(PIN_C6); 
0278:  BCF    20.0
0279:  MOVF   20,W
027A:  BSF    03.5
027B:  MOVWF  07
027C:  BCF    03.5
027D:  BCF    07.0
027E:  MOVWF  21
027F:  BCF    20.1
0280:  MOVF   20,W
0281:  BSF    03.5
0282:  MOVWF  07
0283:  BCF    03.5
0284:  BCF    07.1
0285:  SUBWF  21,W
0286:  BTFSC  03.0
0287:  GOTO   28A
0288:  MOVLW  00
0289:  GOTO   28B
028A:  MOVLW  01
028B:  MOVWF  21
028C:  BCF    20.2
028D:  MOVF   20,W
028E:  BSF    03.5
028F:  MOVWF  07
0290:  BCF    03.5
0291:  BCF    07.2
0292:  SUBWF  21,W
0293:  BTFSC  03.0
0294:  GOTO   297
0295:  MOVLW  00
0296:  GOTO   298
0297:  MOVLW  01
0298:  MOVWF  21
0299:  BCF    20.3
029A:  MOVF   20,W
029B:  BSF    03.5
029C:  MOVWF  07
029D:  BCF    03.5
029E:  BSF    07.3
029F:  SUBWF  21,W
02A0:  BTFSC  03.0
02A1:  GOTO   2A4
02A2:  MOVLW  00
02A3:  GOTO   2A5
02A4:  MOVLW  01
02A5:  MOVWF  21
02A6:  BCF    20.4
02A7:  MOVF   20,W
02A8:  BSF    03.5
02A9:  MOVWF  07
02AA:  BCF    03.5
02AB:  BSF    07.4
02AC:  SUBWF  21,W
02AD:  BTFSC  03.0
02AE:  GOTO   2B1
02AF:  MOVLW  00
02B0:  GOTO   2B2
02B1:  MOVLW  01
02B2:  MOVWF  21
02B3:  BCF    20.5
02B4:  MOVF   20,W
02B5:  BSF    03.5
02B6:  MOVWF  07
02B7:  BCF    03.5
02B8:  BSF    07.5
02B9:  SUBWF  21,W
02BA:  BTFSC  03.0
02BB:  GOTO   2BE
02BC:  MOVLW  00
02BD:  GOTO   2BF
02BE:  MOVLW  01
02BF:  MOVWF  21
02C0:  BCF    20.6
02C1:  MOVF   20,W
02C2:  BSF    03.5
02C3:  MOVWF  07
02C4:  BCF    03.5
02C5:  BSF    07.6
02C6:  SUBWF  21,W
02C7:  BTFSS  03.0
02C8:  MOVLW  00
.................... delay_ms(200); 
02C9:  MOVLW  C8
02CA:  MOVWF  21
02CB:  CALL   004
.................... output_low(PIN_C0)>=output_low(PIN_C1)>=output_low(PIN_C2)>=output_low(PIN_C3)>=output_low(PIN_C4)>=output_low(PIN_C5)>=output_low(PIN_C6); 
02CC:  BCF    20.0
02CD:  MOVF   20,W
02CE:  BSF    03.5
02CF:  MOVWF  07
02D0:  BCF    03.5
02D1:  BCF    07.0
02D2:  MOVWF  21
02D3:  BCF    20.1
02D4:  MOVF   20,W
02D5:  BSF    03.5
02D6:  MOVWF  07
02D7:  BCF    03.5
02D8:  BCF    07.1
02D9:  SUBWF  21,W
02DA:  BTFSC  03.0
02DB:  GOTO   2DE
02DC:  MOVLW  00
02DD:  GOTO   2DF
02DE:  MOVLW  01
02DF:  MOVWF  21
02E0:  BCF    20.2
02E1:  MOVF   20,W
02E2:  BSF    03.5
02E3:  MOVWF  07
02E4:  BCF    03.5
02E5:  BCF    07.2
02E6:  SUBWF  21,W
02E7:  BTFSC  03.0
02E8:  GOTO   2EB
02E9:  MOVLW  00
02EA:  GOTO   2EC
02EB:  MOVLW  01
02EC:  MOVWF  21
02ED:  BCF    20.3
02EE:  MOVF   20,W
02EF:  BSF    03.5
02F0:  MOVWF  07
02F1:  BCF    03.5
02F2:  BCF    07.3
02F3:  SUBWF  21,W
02F4:  BTFSC  03.0
02F5:  GOTO   2F8
02F6:  MOVLW  00
02F7:  GOTO   2F9
02F8:  MOVLW  01
02F9:  MOVWF  21
02FA:  BCF    20.4
02FB:  MOVF   20,W
02FC:  BSF    03.5
02FD:  MOVWF  07
02FE:  BCF    03.5
02FF:  BCF    07.4
0300:  SUBWF  21,W
0301:  BTFSC  03.0
0302:  GOTO   305
0303:  MOVLW  00
0304:  GOTO   306
0305:  MOVLW  01
0306:  MOVWF  21
0307:  BCF    20.5
0308:  MOVF   20,W
0309:  BSF    03.5
030A:  MOVWF  07
030B:  BCF    03.5
030C:  BCF    07.5
030D:  SUBWF  21,W
030E:  BTFSC  03.0
030F:  GOTO   312
0310:  MOVLW  00
0311:  GOTO   313
0312:  MOVLW  01
0313:  MOVWF  21
0314:  BCF    20.6
0315:  MOVF   20,W
0316:  BSF    03.5
0317:  MOVWF  07
0318:  BCF    03.5
0319:  BCF    07.6
031A:  SUBWF  21,W
031B:  BTFSS  03.0
031C:  MOVLW  00
.................... delay_ms(200); 
031D:  MOVLW  C8
031E:  MOVWF  21
031F:  CALL   004
.................... output_low(PIN_C0)>=output_low(PIN_C1)>=output_low(PIN_C2)>=output_low(PIN_C3)>=output_high(PIN_C4)>=output_low(PIN_C5)>=output_low(PIN_C6); 
0320:  BCF    20.0
0321:  MOVF   20,W
0322:  BSF    03.5
0323:  MOVWF  07
0324:  BCF    03.5
0325:  BCF    07.0
0326:  MOVWF  21
0327:  BCF    20.1
0328:  MOVF   20,W
0329:  BSF    03.5
032A:  MOVWF  07
032B:  BCF    03.5
032C:  BCF    07.1
032D:  SUBWF  21,W
032E:  BTFSC  03.0
032F:  GOTO   332
0330:  MOVLW  00
0331:  GOTO   333
0332:  MOVLW  01
0333:  MOVWF  21
0334:  BCF    20.2
0335:  MOVF   20,W
0336:  BSF    03.5
0337:  MOVWF  07
0338:  BCF    03.5
0339:  BCF    07.2
033A:  SUBWF  21,W
033B:  BTFSC  03.0
033C:  GOTO   33F
033D:  MOVLW  00
033E:  GOTO   340
033F:  MOVLW  01
0340:  MOVWF  21
0341:  BCF    20.3
0342:  MOVF   20,W
0343:  BSF    03.5
0344:  MOVWF  07
0345:  BCF    03.5
0346:  BCF    07.3
0347:  SUBWF  21,W
0348:  BTFSC  03.0
0349:  GOTO   34C
034A:  MOVLW  00
034B:  GOTO   34D
034C:  MOVLW  01
034D:  MOVWF  21
034E:  BCF    20.4
034F:  MOVF   20,W
0350:  BSF    03.5
0351:  MOVWF  07
0352:  BCF    03.5
0353:  BSF    07.4
0354:  SUBWF  21,W
0355:  BTFSC  03.0
0356:  GOTO   359
0357:  MOVLW  00
0358:  GOTO   35A
0359:  MOVLW  01
035A:  MOVWF  21
035B:  BCF    20.5
035C:  MOVF   20,W
035D:  BSF    03.5
035E:  MOVWF  07
035F:  BCF    03.5
0360:  BCF    07.5
0361:  SUBWF  21,W
0362:  BTFSC  03.0
0363:  GOTO   366
0364:  MOVLW  00
0365:  GOTO   367
0366:  MOVLW  01
0367:  MOVWF  21
0368:  BCF    20.6
0369:  MOVF   20,W
036A:  BSF    03.5
036B:  MOVWF  07
036C:  BCF    03.5
036D:  BCF    07.6
036E:  SUBWF  21,W
036F:  BTFSS  03.0
0370:  MOVLW  00
.................... delay_ms(200); 
0371:  MOVLW  C8
0372:  MOVWF  21
0373:  CALL   004
....................  
....................  
.................... } 
.................... } 
0374:  GOTO   027
....................  
.................... } 
....................  
....................  
0375:  SLEEP

Configuration Fuses:
   Word  1: 3F71   XT NOWDT PUT NODEBUG NOPROTECT BROWNOUT NOLVP NOCPD NOWRT
